target datalayout = "e-m:e-p270:32:32-p271:32:32-p272:64:64-i64:64-i128:128-f80:128-n8:16:32:64-S128"
target triple = "x86_64-pc-linux-gnu"

%struct.Vec_Ptr_t_ = type { i32, i32, ptr }
%struct.Aig_Man_t_ = type { ptr, ptr, ptr, ptr, ptr, ptr, ptr, %struct.Aig_Obj_t_, i32, i32, i32, i32, i32, i32, [7 x i32], i32, ptr, i32, ptr, i32, ptr, i32, i32, i32, ptr, i32, i32, i32, i32, i32, ptr, ptr, i32, ptr, ptr, i32, ptr, ptr, i32, i32, i32, ptr, ptr, ptr, ptr, ptr, ptr, ptr, ptr, ptr, ptr, ptr, ptr, ptr, ptr, i32, ptr, ptr, ptr, ptr, i32, i64, i64, i64, ptr, ptr }
%struct.Aig_Obj_t_ = type { %union.anon, ptr, ptr, i64, i32, i32, %union.anon.0 }
%union.anon = type { ptr }
%union.anon.0 = type { ptr }
%struct.timespec = type { i64, i64 }

@.str = private unnamed_addr constant [7 x i8] c"%3s : \00", align 1
@.str.1 = private unnamed_addr constant [10 x i8] c"PI =%6d  \00", align 1
@.str.2 = private unnamed_addr constant [10 x i8] c"PO =%6d  \00", align 1
@.str.3 = private unnamed_addr constant [10 x i8] c"FF =%7d  \00", align 1
@.str.4 = private unnamed_addr constant [10 x i8] c"ND =%7d  \00", align 1
@.str.5 = private unnamed_addr constant [25 x i8] c"Solved =%7d (%5.1f %%)  \00", align 1
@.str.6 = private unnamed_addr constant [25 x i8] c"Size   =%7d (%5.1f %%)  \00", align 1
@.str.7 = private unnamed_addr constant [5 x i8] c"Time\00", align 1
@.str.19 = private unnamed_addr constant [5 x i8] c"%s =\00", align 1
@.str.20 = private unnamed_addr constant [11 x i8] c"%9.2f sec\0A\00", align 1

; Function Attrs: inlinehint nounwind uwtable
define internal i32 @Vec_PtrSize(ptr noundef %0) #2 {
  %2 = alloca ptr, align 8
  store ptr %0, ptr %2, align 8, !tbaa !3
  %3 = load ptr, ptr %2, align 8, !tbaa !3
  %4 = getelementptr inbounds nuw %struct.Vec_Ptr_t_, ptr %3, i32 0, i32 1
  %5 = load i32, ptr %4, align 4, !tbaa !21
  ret i32 %5
}

; Function Attrs: inlinehint nounwind uwtable
define internal void @Abc_PrintTime(i32 noundef %0, ptr noundef %1, i64 noundef %2) #2 {
  %4 = alloca i32, align 4
  %5 = alloca ptr, align 8
  %6 = alloca i64, align 8
  store i32 %0, ptr %4, align 4, !tbaa !10
  store ptr %1, ptr %5, align 8, !tbaa !58
  store i64 %2, ptr %6, align 8, !tbaa !59
  %7 = load ptr, ptr %5, align 8, !tbaa !58
  call void (i32, ptr, ...) @Abc_Print(i32 noundef 1, ptr noundef @.str.19, ptr noundef %7)
  %8 = load i64, ptr %6, align 8, !tbaa !59
  %9 = sitofp i64 %8 to double
  %10 = fmul double 1.000000e+00, %9
  %11 = fdiv double %10, 1.000000e+06
  call void (i32, ptr, ...) @Abc_Print(i32 noundef 1, ptr noundef @.str.20, double noundef %11)
  ret void
}

; Function Attrs: inlinehint nounwind uwtable
define internal i64 @Abc_Clock() #2 {
  %1 = alloca i64, align 8
  %2 = alloca %struct.timespec, align 8
  %3 = alloca i32, align 4
  %4 = alloca i64, align 8
  call void @llvm.lifetime.start.p0(i64 16, ptr %2) #10
  %5 = call i32 @clock_gettime(i32 noundef 1, ptr noundef %2) #10
  %6 = icmp slt i32 %5, 0
  br i1 %6, label %7, label %8

7:                                                ; preds = %0
  store i64 -1, ptr %1, align 8
  store i32 1, ptr %3, align 4
  br label %19

8:                                                ; preds = %0
  call void @llvm.lifetime.start.p0(i64 8, ptr %4) #10
  %9 = getelementptr inbounds nuw %struct.timespec, ptr %2, i32 0, i32 0
  %10 = load i64, ptr %9, align 8, !tbaa !103
  %11 = mul nsw i64 %10, 1000000
  store i64 %11, ptr %4, align 8, !tbaa !59
  %12 = getelementptr inbounds nuw %struct.timespec, ptr %2, i32 0, i32 1
  %13 = load i64, ptr %12, align 8, !tbaa !105
  %14 = mul nsw i64 %13, 1000000
  %15 = sdiv i64 %14, 1000000000
  %16 = load i64, ptr %4, align 8, !tbaa !59
  %17 = add nsw i64 %16, %15
  store i64 %17, ptr %4, align 8, !tbaa !59
  %18 = load i64, ptr %4, align 8, !tbaa !59
  store i64 %18, ptr %1, align 8
  store i32 1, ptr %3, align 4
  call void @llvm.lifetime.end.p0(i64 8, ptr %4) #10
  br label %19

19:                                               ; preds = %8, %7
  call void @llvm.lifetime.end.p0(i64 16, ptr %2) #10
  %20 = load i64, ptr %1, align 8
  ret i64 %20
}

; Function Attrs: inlinehint nounwind uwtable
define internal i32 @Aig_ManObjNum(ptr noundef %0) #2 {
  %2 = alloca ptr, align 8
  store ptr %0, ptr %2, align 8, !tbaa !45
  %3 = load ptr, ptr %2, align 8, !tbaa !45
  %4 = getelementptr inbounds nuw %struct.Aig_Man_t_, ptr %3, i32 0, i32 4
  %5 = load ptr, ptr %4, align 8, !tbaa !62
  %6 = call i32 @Vec_PtrSize(ptr noundef %5)
  %7 = load ptr, ptr %2, align 8, !tbaa !45
  %8 = getelementptr inbounds nuw %struct.Aig_Man_t_, ptr %7, i32 0, i32 15
  %9 = load i32, ptr %8, align 4, !tbaa !63
  %10 = sub nsw i32 %6, %9
  ret i32 %10
}

; Function Attrs: inlinehint nounwind uwtable
define internal i32 @Abc_MaxInt(i32 noundef %0, i32 noundef %1) #2 {
  %3 = alloca i32, align 4
  %4 = alloca i32, align 4
  store i32 %0, ptr %3, align 4, !tbaa !10
  store i32 %1, ptr %4, align 4, !tbaa !10
  %5 = load i32, ptr %3, align 4, !tbaa !10
  %6 = load i32, ptr %4, align 4, !tbaa !10
  %7 = icmp sgt i32 %5, %6
  br i1 %7, label %8, label %10

8:                                                ; preds = %2
  %9 = load i32, ptr %3, align 4, !tbaa !10
  br label %12

10:                                               ; preds = %2
  %11 = load i32, ptr %4, align 4, !tbaa !10
  br label %12

12:                                               ; preds = %10, %8
  %13 = phi i32 [ %9, %8 ], [ %11, %10 ]
  ret i32 %13
}

; Function Attrs: inlinehint nounwind uwtable
define internal i32 @Aig_ManNodeNum(ptr noundef %0) #2 {
  %2 = alloca ptr, align 8
  store ptr %0, ptr %2, align 8, !tbaa !45
  %3 = load ptr, ptr %2, align 8, !tbaa !45
  %4 = getelementptr inbounds nuw %struct.Aig_Man_t_, ptr %3, i32 0, i32 14
  %5 = getelementptr inbounds [7 x i32], ptr %4, i64 0, i64 5
  %6 = load i32, ptr %5, align 4, !tbaa !10
  %7 = load ptr, ptr %2, align 8, !tbaa !45
  %8 = getelementptr inbounds nuw %struct.Aig_Man_t_, ptr %7, i32 0, i32 14
  %9 = getelementptr inbounds [7 x i32], ptr %8, i64 0, i64 6
  %10 = load i32, ptr %9, align 8, !tbaa !10
  %11 = add nsw i32 %6, %10
  ret i32 %11
}

; Function Attrs: inlinehint nounwind uwtable
define internal i32 @Saig_ManRegNum(ptr noundef %0) #2 {
  %2 = alloca ptr, align 8
  store ptr %0, ptr %2, align 8, !tbaa !45
  %3 = load ptr, ptr %2, align 8, !tbaa !45
  %4 = getelementptr inbounds nuw %struct.Aig_Man_t_, ptr %3, i32 0, i32 8
  %5 = load i32, ptr %4, align 8, !tbaa !61
  ret i32 %5
}

; Function Attrs: inlinehint nounwind uwtable
define internal i32 @Saig_ManPoNum(ptr noundef %0) #2 {
  %2 = alloca ptr, align 8
  store ptr %0, ptr %2, align 8, !tbaa !45
  %3 = load ptr, ptr %2, align 8, !tbaa !45
  %4 = getelementptr inbounds nuw %struct.Aig_Man_t_, ptr %3, i32 0, i32 10
  %5 = load i32, ptr %4, align 8, !tbaa !55
  ret i32 %5
}

; Function Attrs: inlinehint nounwind uwtable
define internal i32 @Saig_ManPiNum(ptr noundef %0) #2 {
  %2 = alloca ptr, align 8
  store ptr %0, ptr %2, align 8, !tbaa !45
  %3 = load ptr, ptr %2, align 8, !tbaa !45
  %4 = getelementptr inbounds nuw %struct.Aig_Man_t_, ptr %3, i32 0, i32 9
  %5 = load i32, ptr %4, align 4, !tbaa !60
  ret i32 %5
}

; Function Attrs: nounwind uwtable
define void @Gia_ManMultiReport(ptr noundef %0, ptr noundef %1, i32 noundef %2, i32 noundef %3, i64 noundef %4) #0 {
  %6 = alloca ptr, align 8
  %7 = alloca ptr, align 8
  %8 = alloca i32, align 4
  %9 = alloca i32, align 4
  %10 = alloca i64, align 8
  store ptr %0, ptr %6, align 8, !tbaa !45
  store ptr %1, ptr %7, align 8, !tbaa !58
  store i32 %2, ptr %8, align 4, !tbaa !10
  store i32 %3, ptr %9, align 4, !tbaa !10
  store i64 %4, ptr %10, align 8, !tbaa !59
  %11 = load ptr, ptr %7, align 8, !tbaa !58
  %12 = call i32 (ptr, ...) @printf(ptr noundef @.str, ptr noundef %11)
  %13 = load ptr, ptr %6, align 8, !tbaa !45
  %14 = call i32 @Saig_ManPiNum(ptr noundef %13)
  %15 = call i32 (ptr, ...) @printf(ptr noundef @.str.1, i32 noundef %14)
  %16 = load ptr, ptr %6, align 8, !tbaa !45
  %17 = call i32 @Saig_ManPoNum(ptr noundef %16)
  %18 = call i32 (ptr, ...) @printf(ptr noundef @.str.2, i32 noundef %17)
  %19 = load ptr, ptr %6, align 8, !tbaa !45
  %20 = call i32 @Saig_ManRegNum(ptr noundef %19)
  %21 = call i32 (ptr, ...) @printf(ptr noundef @.str.3, i32 noundef %20)
  %22 = load ptr, ptr %6, align 8, !tbaa !45
  %23 = call i32 @Aig_ManNodeNum(ptr noundef %22)
  %24 = call i32 (ptr, ...) @printf(ptr noundef @.str.4, i32 noundef %23)
  %25 = load i32, ptr %8, align 4, !tbaa !10
  %26 = load ptr, ptr %6, align 8, !tbaa !45
  %27 = call i32 @Saig_ManPoNum(ptr noundef %26)
  %28 = sub nsw i32 %25, %27
  %29 = load i32, ptr %8, align 4, !tbaa !10
  %30 = load ptr, ptr %6, align 8, !tbaa !45
  %31 = call i32 @Saig_ManPoNum(ptr noundef %30)
  %32 = sub nsw i32 %29, %31
  %33 = sitofp i32 %32 to double
  %34 = fmul double 1.000000e+02, %33
  %35 = load i32, ptr %8, align 4, !tbaa !10
  %36 = call i32 @Abc_MaxInt(i32 noundef 1, i32 noundef %35)
  %37 = sitofp i32 %36 to double
  %38 = fdiv double %34, %37
  %39 = call i32 (ptr, ...) @printf(ptr noundef @.str.5, i32 noundef %28, double noundef %38)
  %40 = load ptr, ptr %6, align 8, !tbaa !45
  %41 = call i32 @Aig_ManObjNum(ptr noundef %40)
  %42 = load ptr, ptr %6, align 8, !tbaa !45
  %43 = call i32 @Aig_ManObjNum(ptr noundef %42)
  %44 = sitofp i32 %43 to double
  %45 = fmul double 1.000000e+02, %44
  %46 = load i32, ptr %9, align 4, !tbaa !10
  %47 = call i32 @Abc_MaxInt(i32 noundef 1, i32 noundef %46)
  %48 = sitofp i32 %47 to double
  %49 = fdiv double %45, %48
  %50 = call i32 (ptr, ...) @printf(ptr noundef @.str.6, i32 noundef %41, double noundef %49)
  %51 = call i64 @Abc_Clock()
  %52 = load i64, ptr %10, align 8, !tbaa !59
  %53 = sub nsw i64 %51, %52
  call void @Abc_PrintTime(i32 noundef 1, ptr noundef @.str.7, i64 noundef %53)
  ret void
}