; Function Attrs: nounwind uwtable
define void @Gia_ManMultiReport(ptr noundef readonly captures(none) %0, ptr noundef %1, i32 noundef %2, i32 noundef %3, i64 noundef %4) local_unnamed_addr #0 {
  %6 = alloca %struct.timespec, align 8
  %7 = tail call i32 (ptr, ...) @printf(ptr noundef nonnull dereferenceable(1) @.str, ptr noundef %1)
  %8 = getelementptr i8, ptr %0, i64 108
  %.val15 = load i32, ptr %8, align 4, !tbaa !52
  %9 = tail call i32 (ptr, ...) @printf(ptr noundef nonnull dereferenceable(1) @.str.1, i32 noundef %.val15)
  %10 = getelementptr i8, ptr %0, i64 112
  %.val14 = load i32, ptr %10, align 8, !tbaa !41
  %11 = tail call i32 (ptr, ...) @printf(ptr noundef nonnull dereferenceable(1) @.str.2, i32 noundef %.val14)
  %12 = getelementptr i8, ptr %0, i64 104
  %.val16 = load i32, ptr %12, align 8, !tbaa !53
  %13 = tail call i32 (ptr, ...) @printf(ptr noundef nonnull dereferenceable(1) @.str.3, i32 noundef %.val16)
  %14 = getelementptr i8, ptr %0, i64 148
  %.val17 = load i32, ptr %14, align 4, !tbaa !14
  %15 = getelementptr i8, ptr %0, i64 152
  %.val18 = load i32, ptr %15, align 8, !tbaa !14
  %16 = add nsw i32 %.val18, %.val17
  %17 = tail call i32 (ptr, ...) @printf(ptr noundef nonnull dereferenceable(1) @.str.4, i32 noundef %16)
  %.val13 = load i32, ptr %10, align 8, !tbaa !41
  %18 = sub nsw i32 %2, %.val13
  %19 = sitofp i32 %18 to double
  %20 = fmul double %19, 1.000000e+02
  %21 = tail call noundef range(i32 1, -2147483648) i32 @llvm.smax.i32(i32 %2, i32 1)
  %22 = uitofp nneg i32 %21 to double
  %23 = fdiv double %20, %22
  %24 = tail call i32 (ptr, ...) @printf(ptr noundef nonnull dereferenceable(1) @.str.5, i32 noundef %18, double noundef %23)
  %25 = getelementptr i8, ptr %0, i64 32
  %.val19 = load ptr, ptr %25, align 8, !tbaa !54
  %26 = getelementptr i8, ptr %0, i64 156
  %.val20 = load i32, ptr %26, align 4, !tbaa !55
  %27 = getelementptr i8, ptr %.val19, i64 4
  %.val19.val = load i32, ptr %27, align 4, !tbaa !3
  %28 = sub nsw i32 %.val19.val, %.val20
  %29 = sitofp i32 %28 to double
  %30 = fmul double %29, 1.000000e+02
  %31 = tail call noundef range(i32 1, -2147483648) i32 @llvm.smax.i32(i32 %3, i32 1)
  %32 = uitofp nneg i32 %31 to double
  %33 = fdiv double %30, %32
  %34 = tail call i32 (ptr, ...) @printf(ptr noundef nonnull dereferenceable(1) @.str.6, i32 noundef %28, double noundef %33)
  call void @llvm.lifetime.start.p0(i64 16, ptr nonnull %6) #16
  %35 = call i32 @clock_gettime(i32 noundef 1, ptr noundef nonnull %6) #16
  %36 = icmp slt i32 %35, 0
  br i1 %36, label %Abc_Clock.exit, label %37

37:                                               ; preds = %5
  %38 = load i64, ptr %6, align 8, !tbaa !56
  %39 = mul nsw i64 %38, 1000000
  %40 = getelementptr inbounds nuw i8, ptr %6, i64 8
  %41 = load i64, ptr %40, align 8, !tbaa !58
  %42 = sdiv i64 %41, 1000
  %43 = add nsw i64 %42, %39
  br label %Abc_Clock.exit

Abc_Clock.exit:                                   ; preds = %5, %37
  %.0.i = phi i64 [ %43, %37 ], [ -1, %5 ]
  call void @llvm.lifetime.end.p0(i64 16, ptr nonnull %6) #16
  %44 = sub nsw i64 %.0.i, %4
  call void (i32, ptr, ...) @Abc_Print(i32 poison, ptr noundef nonnull @.str.19, ptr noundef nonnull @.str.7)
  %45 = sitofp i64 %44 to double
  %46 = fdiv double %45, 1.000000e+06
  call void (i32, ptr, ...) @Abc_Print(i32 poison, ptr noundef nonnull @.str.20, double noundef %46)
  ret void
}